target datalayout = "e-m:e-p270:32:32-p271:32:32-p272:64:64-i64:64-i128:128-f80:128-n8:16:32:64-S128"
target triple = "x86_64-pc-linux-gnu"

%struct.AVFilterContext = type { ptr, ptr, ptr, ptr, ptr, i32, ptr, ptr, i32, ptr, ptr, i32, i32, ptr, ptr, ptr, ptr, i32, ptr, i32, i32 }
%struct.NoiseContext = type { ptr, i32, [4 x i32], [4 x i32], %struct.FilterParams, [4 x %struct.FilterParams], ptr, ptr }
%struct.FilterParams = type { i32, i32, %struct.AVLFG, i32, ptr, [4096 x [3 x ptr]], [4096 x i32], i32 }
%struct.AVLFG = type { [64 x i32], i32 }
%struct.ThreadData = type { ptr, ptr }
%struct.AVChannelLayout = type { i32, i32, %union.anon.1, ptr }
%union.anon.1 = type { i64 }
%struct.AVRational = type { i32, i32 }
%struct.AVFrame = type { [8 x ptr], [8 x i32], ptr, i32, i32, i32, i32, i32, %struct.AVRational, i64, i64, %struct.AVRational, i32, ptr, i32, i32, [8 x ptr], ptr, i32, ptr, i32, i32, i32, i32, i32, i32, i32, i64, ptr, i32, ptr, ptr, i64, i64, i64, i64, ptr, %struct.AVChannelLayout, i64 }

; Function Attrs: nounwind uwtable
define internal void @noise(ptr noundef %0, ptr noundef %1, i32 noundef %2, i32 noundef %3, i32 noundef %4, i32 noundef %5, i32 noundef %6, ptr noundef %7, i32 noundef %8) #0 {
  %10 = alloca ptr, align 8
  %11 = alloca ptr, align 8
  %12 = alloca i32, align 4
  %13 = alloca i32, align 4
  %14 = alloca i32, align 4
  %15 = alloca i32, align 4
  %16 = alloca i32, align 4
  %17 = alloca ptr, align 8
  %18 = alloca i32, align 4
  %19 = alloca ptr, align 8
  %20 = alloca ptr, align 8
  %21 = alloca i32, align 4
  %22 = alloca i32, align 4
  %23 = alloca i32, align 4
  %24 = alloca i32, align 4
  %25 = alloca i32, align 4
  %26 = alloca i32, align 4
  %27 = alloca i32, align 4
  store ptr %0, ptr %10, align 8, !tbaa !4
  store ptr %1, ptr %11, align 8, !tbaa !4
  store i32 %2, ptr %12, align 4, !tbaa !9
  store i32 %3, ptr %13, align 4, !tbaa !9
  store i32 %4, ptr %14, align 4, !tbaa !9
  store i32 %5, ptr %15, align 4, !tbaa !9
  store i32 %6, ptr %16, align 4, !tbaa !9
  store ptr %7, ptr %17, align 8, !tbaa !30
  store i32 %8, ptr %18, align 4, !tbaa !9
  call void @llvm.lifetime.start.p0(i64 8, ptr %19) #9
  %28 = load ptr, ptr %17, align 8, !tbaa !30
  %29 = getelementptr inbounds nuw %struct.NoiseContext, ptr %28, i32 0, i32 5
  %30 = load i32, ptr %18, align 4, !tbaa !9
  %31 = sext i32 %30 to i64
  %32 = getelementptr inbounds [4 x %struct.FilterParams], ptr %29, i64 0, i64 %31
  store ptr %32, ptr %19, align 8, !tbaa !72
  call void @llvm.lifetime.start.p0(i64 8, ptr %20) #9
  %33 = load ptr, ptr %19, align 8, !tbaa !72
  %34 = getelementptr inbounds nuw %struct.FilterParams, ptr %33, i32 0, i32 4
  %35 = load ptr, ptr %34, align 8, !tbaa !90
  store ptr %35, ptr %20, align 8, !tbaa !4
  call void @llvm.lifetime.start.p0(i64 4, ptr %21) #9
  %36 = load ptr, ptr %19, align 8, !tbaa !72
  %37 = getelementptr inbounds nuw %struct.FilterParams, ptr %36, i32 0, i32 1
  %38 = load i32, ptr %37, align 4, !tbaa !40
  store i32 %38, ptr %21, align 4, !tbaa !9
  call void @llvm.lifetime.start.p0(i64 4, ptr %22) #9
  %39 = load ptr, ptr %20, align 8, !tbaa !4
  %40 = icmp ne ptr %39, null
  br i1 %40, label %55, label %41

41:                                               ; preds = %9
  %42 = load ptr, ptr %10, align 8, !tbaa !4
  %43 = load ptr, ptr %11, align 8, !tbaa !4
  %44 = icmp ne ptr %42, %43
  br i1 %44, label %45, label %54

45:                                               ; preds = %41
  %46 = load ptr, ptr %10, align 8, !tbaa !4
  %47 = load i32, ptr %12, align 4, !tbaa !9
  %48 = load ptr, ptr %11, align 8, !tbaa !4
  %49 = load i32, ptr %13, align 4, !tbaa !9
  %50 = load i32, ptr %14, align 4, !tbaa !9
  %51 = load i32, ptr %16, align 4, !tbaa !9
  %52 = load i32, ptr %15, align 4, !tbaa !9
  %53 = sub nsw i32 %51, %52
  call void @av_image_copy_plane(ptr noundef %46, i32 noundef %47, ptr noundef %48, i32 noundef %49, i32 noundef %50, i32 noundef %53)
  br label %54

54:                                               ; preds = %45, %41
  store i32 1, ptr %23, align 4
  br label %153

55:                                               ; preds = %9
  %56 = load i32, ptr %15, align 4, !tbaa !9
  store i32 %56, ptr %22, align 4, !tbaa !9
  br label %57

57:                                               ; preds = %149, %55
  %58 = load i32, ptr %22, align 4, !tbaa !9
  %59 = load i32, ptr %16, align 4, !tbaa !9
  %60 = icmp slt i32 %58, %59
  br i1 %60, label %61, label %152

61:                                               ; preds = %57
  call void @llvm.lifetime.start.p0(i64 4, ptr %24) #9
  %62 = load i32, ptr %22, align 4, !tbaa !9
  %63 = and i32 %62, 4095
  store i32 %63, ptr %24, align 4, !tbaa !9
  call void @llvm.lifetime.start.p0(i64 4, ptr %25) #9
  store i32 0, ptr %25, align 4, !tbaa !9
  br label %64

64:                                               ; preds = %137, %61
  %65 = load i32, ptr %25, align 4, !tbaa !9
  %66 = load i32, ptr %14, align 4, !tbaa !9
  %67 = icmp slt i32 %65, %66
  br i1 %67, label %68, label %140

68:                                               ; preds = %64
  call void @llvm.lifetime.start.p0(i64 4, ptr %26) #9
  %69 = load i32, ptr %14, align 4, !tbaa !9
  %70 = load i32, ptr %25, align 4, !tbaa !9
  %71 = sub nsw i32 %69, %70
  %72 = icmp sgt i32 %71, 4096
  br i1 %72, label %73, label %74

73:                                               ; preds = %68
  br label %78

74:                                               ; preds = %68
  %75 = load i32, ptr %14, align 4, !tbaa !9
  %76 = load i32, ptr %25, align 4, !tbaa !9
  %77 = sub nsw i32 %75, %76
  br label %78

78:                                               ; preds = %74, %73
  %79 = phi i32 [ 4096, %73 ], [ %77, %74 ]
  store i32 %79, ptr %26, align 4, !tbaa !9
  call void @llvm.lifetime.start.p0(i64 4, ptr %27) #9
  %80 = load ptr, ptr %19, align 8, !tbaa !72
  %81 = getelementptr inbounds nuw %struct.FilterParams, ptr %80, i32 0, i32 6
  %82 = load i32, ptr %24, align 4, !tbaa !9
  %83 = sext i32 %82 to i64
  %84 = getelementptr inbounds [4096 x i32], ptr %81, i64 0, i64 %83
  %85 = load i32, ptr %84, align 4, !tbaa !9
  store i32 %85, ptr %27, align 4, !tbaa !9
  %86 = load i32, ptr %21, align 4, !tbaa !9
  %87 = and i32 %86, 8
  %88 = icmp ne i32 %87, 0
  br i1 %88, label %89, label %121

89:                                               ; preds = %78
  %90 = load ptr, ptr %17, align 8, !tbaa !30
  %91 = getelementptr inbounds nuw %struct.NoiseContext, ptr %90, i32 0, i32 7
  %92 = load ptr, ptr %91, align 8, !tbaa !44
  %93 = load ptr, ptr %10, align 8, !tbaa !4
  %94 = load i32, ptr %25, align 4, !tbaa !9
  %95 = sext i32 %94 to i64
  %96 = getelementptr inbounds i8, ptr %93, i64 %95
  %97 = load ptr, ptr %11, align 8, !tbaa !4
  %98 = load i32, ptr %25, align 4, !tbaa !9
  %99 = sext i32 %98 to i64
  %100 = getelementptr inbounds i8, ptr %97, i64 %99
  %101 = load i32, ptr %26, align 4, !tbaa !9
  %102 = load ptr, ptr %19, align 8, !tbaa !72
  %103 = getelementptr inbounds nuw %struct.FilterParams, ptr %102, i32 0, i32 5
  %104 = load i32, ptr %24, align 4, !tbaa !9
  %105 = sext i32 %104 to i64
  %106 = getelementptr inbounds [4096 x [3 x ptr]], ptr %103, i64 0, i64 %105
  %107 = getelementptr inbounds [3 x ptr], ptr %106, i64 0, i64 0
  call void %92(ptr noundef %96, ptr noundef %100, i32 noundef %101, ptr noundef %107)
  %108 = load ptr, ptr %20, align 8, !tbaa !4
  %109 = load i32, ptr %27, align 4, !tbaa !9
  %110 = sext i32 %109 to i64
  %111 = getelementptr inbounds i8, ptr %108, i64 %110
  %112 = load ptr, ptr %19, align 8, !tbaa !72
  %113 = getelementptr inbounds nuw %struct.FilterParams, ptr %112, i32 0, i32 5
  %114 = load i32, ptr %24, align 4, !tbaa !9
  %115 = sext i32 %114 to i64
  %116 = getelementptr inbounds [4096 x [3 x ptr]], ptr %113, i64 0, i64 %115
  %117 = load i32, ptr %27, align 4, !tbaa !9
  %118 = and i32 %117, 3
  %119 = sext i32 %118 to i64
  %120 = getelementptr inbounds [3 x ptr], ptr %116, i64 0, i64 %119
  store ptr %111, ptr %120, align 8, !tbaa !4
  br label %136

121:                                              ; preds = %78
  %122 = load ptr, ptr %17, align 8, !tbaa !30
  %123 = getelementptr inbounds nuw %struct.NoiseContext, ptr %122, i32 0, i32 6
  %124 = load ptr, ptr %123, align 8, !tbaa !43
  %125 = load ptr, ptr %10, align 8, !tbaa !4
  %126 = load i32, ptr %25, align 4, !tbaa !9
  %127 = sext i32 %126 to i64
  %128 = getelementptr inbounds i8, ptr %125, i64 %127
  %129 = load ptr, ptr %11, align 8, !tbaa !4
  %130 = load i32, ptr %25, align 4, !tbaa !9
  %131 = sext i32 %130 to i64
  %132 = getelementptr inbounds i8, ptr %129, i64 %131
  %133 = load ptr, ptr %20, align 8, !tbaa !4
  %134 = load i32, ptr %26, align 4, !tbaa !9
  %135 = load i32, ptr %27, align 4, !tbaa !9
  call void %124(ptr noundef %128, ptr noundef %132, ptr noundef %133, i32 noundef %134, i32 noundef %135)
  br label %136

136:                                              ; preds = %121, %89
  call void @llvm.lifetime.end.p0(i64 4, ptr %27) #9
  call void @llvm.lifetime.end.p0(i64 4, ptr %26) #9
  br label %137

137:                                              ; preds = %136
  %138 = load i32, ptr %25, align 4, !tbaa !9
  %139 = add nsw i32 %138, 4096
  store i32 %139, ptr %25, align 4, !tbaa !9
  br label %64, !llvm.loop !91

140:                                              ; preds = %64
  %141 = load i32, ptr %12, align 4, !tbaa !9
  %142 = load ptr, ptr %10, align 8, !tbaa !4
  %143 = sext i32 %141 to i64
  %144 = getelementptr inbounds i8, ptr %142, i64 %143
  store ptr %144, ptr %10, align 8, !tbaa !4
  %145 = load i32, ptr %13, align 4, !tbaa !9
  %146 = load ptr, ptr %11, align 8, !tbaa !4
  %147 = sext i32 %145 to i64
  %148 = getelementptr inbounds i8, ptr %146, i64 %147
  store ptr %148, ptr %11, align 8, !tbaa !4
  call void @llvm.lifetime.end.p0(i64 4, ptr %25) #9
  call void @llvm.lifetime.end.p0(i64 4, ptr %24) #9
  br label %149

149:                                              ; preds = %140
  %150 = load i32, ptr %22, align 4, !tbaa !9
  %151 = add nsw i32 %150, 1
  store i32 %151, ptr %22, align 4, !tbaa !9
  br label %57, !llvm.loop !92

152:                                              ; preds = %57
  store i32 0, ptr %23, align 4
  br label %153

153:                                              ; preds = %152, %54
  call void @llvm.lifetime.end.p0(i64 4, ptr %22) #9
  call void @llvm.lifetime.end.p0(i64 4, ptr %21) #9
  call void @llvm.lifetime.end.p0(i64 8, ptr %20) #9
  call void @llvm.lifetime.end.p0(i64 8, ptr %19) #9
  %154 = load i32, ptr %23, align 4
  switch i32 %154, label %156 [
    i32 0, label %155
    i32 1, label %155
  ]

155:                                              ; preds = %153, %153
  ret void

156:                                              ; preds = %153
  unreachable
}

; Function Attrs: nounwind uwtable
define internal i32 @filter_slice(ptr noundef %0, ptr noundef %1, i32 noundef %2, i32 noundef %3) #0 {
  %5 = alloca ptr, align 8
  %6 = alloca ptr, align 8
  %7 = alloca i32, align 4
  %8 = alloca i32, align 4
  %9 = alloca ptr, align 8
  %10 = alloca ptr, align 8
  %11 = alloca i32, align 4
  %12 = alloca i32, align 4
  %13 = alloca i32, align 4
  %14 = alloca i32, align 4
  store ptr %0, ptr %5, align 8, !tbaa !18
  store ptr %1, ptr %6, align 8, !tbaa !86
  store i32 %2, ptr %7, align 4, !tbaa !9
  store i32 %3, ptr %8, align 4, !tbaa !9
  call void @llvm.lifetime.start.p0(i64 8, ptr %9) #9
  %15 = load ptr, ptr %5, align 8, !tbaa !18
  %16 = getelementptr inbounds nuw %struct.AVFilterContext, ptr %15, i32 0, i32 9
  %17 = load ptr, ptr %16, align 8, !tbaa !20
  store ptr %17, ptr %9, align 8, !tbaa !30
  call void @llvm.lifetime.start.p0(i64 8, ptr %10) #9
  %18 = load ptr, ptr %6, align 8, !tbaa !86
  store ptr %18, ptr %10, align 8, !tbaa !87
  call void @llvm.lifetime.start.p0(i64 4, ptr %11) #9
  store i32 0, ptr %11, align 4, !tbaa !9
  br label %19

19:                                               ; preds = %109, %4
  %20 = load i32, ptr %11, align 4, !tbaa !9
  %21 = load ptr, ptr %9, align 8, !tbaa !30
  %22 = getelementptr inbounds nuw %struct.NoiseContext, ptr %21, i32 0, i32 1
  %23 = load i32, ptr %22, align 8, !tbaa !81
  %24 = icmp slt i32 %20, %23
  br i1 %24, label %25, label %112

25:                                               ; preds = %19
  call void @llvm.lifetime.start.p0(i64 4, ptr %12) #9
  %26 = load ptr, ptr %9, align 8, !tbaa !30
  %27 = getelementptr inbounds nuw %struct.NoiseContext, ptr %26, i32 0, i32 3
  %28 = load i32, ptr %11, align 4, !tbaa !9
  %29 = sext i32 %28 to i64
  %30 = getelementptr inbounds [4 x i32], ptr %27, i64 0, i64 %29
  %31 = load i32, ptr %30, align 4, !tbaa !9
  store i32 %31, ptr %12, align 4, !tbaa !9
  call void @llvm.lifetime.start.p0(i64 4, ptr %13) #9
  %32 = load i32, ptr %12, align 4, !tbaa !9
  %33 = load i32, ptr %7, align 4, !tbaa !9
  %34 = mul nsw i32 %32, %33
  %35 = load i32, ptr %8, align 4, !tbaa !9
  %36 = sdiv i32 %34, %35
  store i32 %36, ptr %13, align 4, !tbaa !9
  call void @llvm.lifetime.start.p0(i64 4, ptr %14) #9
  %37 = load i32, ptr %12, align 4, !tbaa !9
  %38 = load i32, ptr %7, align 4, !tbaa !9
  %39 = add nsw i32 %38, 1
  %40 = mul nsw i32 %37, %39
  %41 = load i32, ptr %8, align 4, !tbaa !9
  %42 = sdiv i32 %40, %41
  store i32 %42, ptr %14, align 4, !tbaa !9
  %43 = load ptr, ptr %10, align 8, !tbaa !87
  %44 = getelementptr inbounds nuw %struct.ThreadData, ptr %43, i32 0, i32 1
  %45 = load ptr, ptr %44, align 8, !tbaa !79
  %46 = getelementptr inbounds nuw %struct.AVFrame, ptr %45, i32 0, i32 0
  %47 = load i32, ptr %11, align 4, !tbaa !9
  %48 = sext i32 %47 to i64
  %49 = getelementptr inbounds [8 x ptr], ptr %46, i64 0, i64 %48
  %50 = load ptr, ptr %49, align 8, !tbaa !4
  %51 = load i32, ptr %13, align 4, !tbaa !9
  %52 = load ptr, ptr %10, align 8, !tbaa !87
  %53 = getelementptr inbounds nuw %struct.ThreadData, ptr %52, i32 0, i32 1
  %54 = load ptr, ptr %53, align 8, !tbaa !79
  %55 = getelementptr inbounds nuw %struct.AVFrame, ptr %54, i32 0, i32 1
  %56 = load i32, ptr %11, align 4, !tbaa !9
  %57 = sext i32 %56 to i64
  %58 = getelementptr inbounds [8 x i32], ptr %55, i64 0, i64 %57
  %59 = load i32, ptr %58, align 4, !tbaa !9
  %60 = mul nsw i32 %51, %59
  %61 = sext i32 %60 to i64
  %62 = getelementptr inbounds i8, ptr %50, i64 %61
  %63 = load ptr, ptr %10, align 8, !tbaa !87
  %64 = getelementptr inbounds nuw %struct.ThreadData, ptr %63, i32 0, i32 0
  %65 = load ptr, ptr %64, align 8, !tbaa !77
  %66 = getelementptr inbounds nuw %struct.AVFrame, ptr %65, i32 0, i32 0
  %67 = load i32, ptr %11, align 4, !tbaa !9
  %68 = sext i32 %67 to i64
  %69 = getelementptr inbounds [8 x ptr], ptr %66, i64 0, i64 %68
  %70 = load ptr, ptr %69, align 8, !tbaa !4
  %71 = load i32, ptr %13, align 4, !tbaa !9
  %72 = load ptr, ptr %10, align 8, !tbaa !87
  %73 = getelementptr inbounds nuw %struct.ThreadData, ptr %72, i32 0, i32 0
  %74 = load ptr, ptr %73, align 8, !tbaa !77
  %75 = getelementptr inbounds nuw %struct.AVFrame, ptr %74, i32 0, i32 1
  %76 = load i32, ptr %11, align 4, !tbaa !9
  %77 = sext i32 %76 to i64
  %78 = getelementptr inbounds [8 x i32], ptr %75, i64 0, i64 %77
  %79 = load i32, ptr %78, align 4, !tbaa !9
  %80 = mul nsw i32 %71, %79
  %81 = sext i32 %80 to i64
  %82 = getelementptr inbounds i8, ptr %70, i64 %81
  %83 = load ptr, ptr %10, align 8, !tbaa !87
  %84 = getelementptr inbounds nuw %struct.ThreadData, ptr %83, i32 0, i32 1
  %85 = load ptr, ptr %84, align 8, !tbaa !79
  %86 = getelementptr inbounds nuw %struct.AVFrame, ptr %85, i32 0, i32 1
  %87 = load i32, ptr %11, align 4, !tbaa !9
  %88 = sext i32 %87 to i64
  %89 = getelementptr inbounds [8 x i32], ptr %86, i64 0, i64 %88
  %90 = load i32, ptr %89, align 4, !tbaa !9
  %91 = load ptr, ptr %10, align 8, !tbaa !87
  %92 = getelementptr inbounds nuw %struct.ThreadData, ptr %91, i32 0, i32 0
  %93 = load ptr, ptr %92, align 8, !tbaa !77
  %94 = getelementptr inbounds nuw %struct.AVFrame, ptr %93, i32 0, i32 1
  %95 = load i32, ptr %11, align 4, !tbaa !9
  %96 = sext i32 %95 to i64
  %97 = getelementptr inbounds [8 x i32], ptr %94, i64 0, i64 %96
  %98 = load i32, ptr %97, align 4, !tbaa !9
  %99 = load ptr, ptr %9, align 8, !tbaa !30
  %100 = getelementptr inbounds nuw %struct.NoiseContext, ptr %99, i32 0, i32 2
  %101 = load i32, ptr %11, align 4, !tbaa !9
  %102 = sext i32 %101 to i64
  %103 = getelementptr inbounds [4 x i32], ptr %100, i64 0, i64 %102
  %104 = load i32, ptr %103, align 4, !tbaa !9
  %105 = load i32, ptr %13, align 4, !tbaa !9
  %106 = load i32, ptr %14, align 4, !tbaa !9
  %107 = load ptr, ptr %9, align 8, !tbaa !30
  %108 = load i32, ptr %11, align 4, !tbaa !9
  call void @noise(ptr noundef %62, ptr noundef %82, i32 noundef %90, i32 noundef %98, i32 noundef %104, i32 noundef %105, i32 noundef %106, ptr noundef %107, i32 noundef %108)
  call void @llvm.lifetime.end.p0(i64 4, ptr %14) #9
  call void @llvm.lifetime.end.p0(i64 4, ptr %13) #9
  call void @llvm.lifetime.end.p0(i64 4, ptr %12) #9
  br label %109

109:                                              ; preds = %25
  %110 = load i32, ptr %11, align 4, !tbaa !9
  %111 = add nsw i32 %110, 1
  store i32 %111, ptr %11, align 4, !tbaa !9
  br label %19, !llvm.loop !89

112:                                              ; preds = %19
  call void @llvm.lifetime.end.p0(i64 4, ptr %11) #9
  call void @llvm.lifetime.end.p0(i64 8, ptr %10) #9
  call void @llvm.lifetime.end.p0(i64 8, ptr %9) #9
  ret i32 0
}