; Function Attrs: nounwind uwtable
define internal noundef i32 @filter_slice(ptr noundef readonly captures(none) %0, ptr noundef readonly captures(none) %1, i32 noundef %2, i32 noundef %3) #4 {
  %5 = getelementptr inbounds nuw i8, ptr %0, i64 72
  %6 = load ptr, ptr %5, align 8, !tbaa !13
  %7 = getelementptr inbounds nuw i8, ptr %6, i64 8
  %8 = load i32, ptr %7, align 8, !tbaa !71
  %9 = icmp sgt i32 %8, 0
  br i1 %9, label %.lr.ph, label %._crit_edge

.lr.ph:                                           ; preds = %4
  %10 = getelementptr inbounds nuw i8, ptr %6, i64 28
  %11 = add nsw i32 %2, 1
  %12 = getelementptr inbounds nuw i8, ptr %1, i64 8
  %13 = getelementptr inbounds nuw i8, ptr %6, i64 12
  %14 = getelementptr inbounds nuw i8, ptr %6, i64 115024
  %15 = getelementptr inbounds nuw i8, ptr %6, i64 574936
  %16 = getelementptr inbounds nuw i8, ptr %6, i64 574928
  br label %17

17:                                               ; preds = %.lr.ph, %noise.exit
  %indvars.iv = phi i64 [ 0, %.lr.ph ], [ %indvars.iv.next, %noise.exit ]
  %18 = getelementptr inbounds nuw [4 x i32], ptr %10, i64 0, i64 %indvars.iv
  %19 = load i32, ptr %18, align 4, !tbaa !64
  %20 = mul nsw i32 %19, %2
  %21 = sdiv i32 %20, %3
  %22 = mul nsw i32 %19, %11
  %23 = sdiv i32 %22, %3
  %24 = load ptr, ptr %12, align 8, !tbaa !69
  %25 = getelementptr inbounds nuw [8 x ptr], ptr %24, i64 0, i64 %indvars.iv
  %26 = load ptr, ptr %25, align 8, !tbaa !9
  %27 = getelementptr inbounds nuw i8, ptr %24, i64 64
  %28 = getelementptr inbounds nuw [8 x i32], ptr %27, i64 0, i64 %indvars.iv
  %29 = load i32, ptr %28, align 4, !tbaa !64
  %30 = mul nsw i32 %29, %21
  %31 = sext i32 %30 to i64
  %32 = getelementptr inbounds i8, ptr %26, i64 %31
  %33 = load ptr, ptr %1, align 8, !tbaa !67
  %34 = getelementptr inbounds nuw [8 x ptr], ptr %33, i64 0, i64 %indvars.iv
  %35 = load ptr, ptr %34, align 8, !tbaa !9
  %36 = getelementptr inbounds nuw i8, ptr %33, i64 64
  %37 = getelementptr inbounds nuw [8 x i32], ptr %36, i64 0, i64 %indvars.iv
  %38 = load i32, ptr %37, align 4, !tbaa !64
  %39 = mul nsw i32 %38, %21
  %40 = sext i32 %39 to i64
  %41 = getelementptr inbounds i8, ptr %35, i64 %40
  %42 = getelementptr inbounds nuw [4 x i32], ptr %13, i64 0, i64 %indvars.iv
  %43 = load i32, ptr %42, align 4, !tbaa !64
  %44 = getelementptr inbounds nuw [4 x %struct.FilterParams], ptr %14, i64 0, i64 %indvars.iv
  %45 = getelementptr inbounds nuw i8, ptr %44, i64 272
  %46 = load ptr, ptr %45, align 8, !tbaa !73
  %47 = getelementptr inbounds nuw i8, ptr %44, i64 4
  %48 = load i32, ptr %47, align 4, !tbaa !33
  %.not.i = icmp eq ptr %46, null
  br i1 %.not.i, label %94, label %.preheader.i

.preheader.i:                                     ; preds = %17
  %49 = icmp slt i32 %21, %23
  br i1 %49, label %.lr.ph68.i, label %noise.exit

.lr.ph68.i:                                       ; preds = %.preheader.i
  %50 = icmp sgt i32 %43, 0
  %51 = getelementptr inbounds nuw i8, ptr %44, i64 98584
  %52 = getelementptr inbounds nuw i8, ptr %44, i64 280
  %53 = sext i32 %29 to i64
  %54 = sext i32 %38 to i64
  br i1 %50, label %.lr.ph68.split.us.i, label %noise.exit

.lr.ph68.split.us.i:                              ; preds = %.lr.ph68.i
  %55 = and i32 %48, 8
  %.not61.i = icmp eq i32 %55, 0
  br i1 %.not61.i, label %.lr.ph.us.us.i, label %.lr.ph.us.i

.lr.ph.us.us.i:                                   ; preds = %.lr.ph68.split.us.i, %._crit_edge.split.us.us.us.i
  %.066.us.us.i = phi ptr [ %69, %._crit_edge.split.us.us.us.i ], [ %32, %.lr.ph68.split.us.i ]
  %.05364.us.us.i = phi ptr [ %70, %._crit_edge.split.us.us.us.i ], [ %41, %.lr.ph68.split.us.i ]
  %.05563.us.us.i = phi i32 [ %71, %._crit_edge.split.us.us.us.i ], [ %21, %.lr.ph68.split.us.i ]
  %56 = and i32 %.05563.us.us.i, 4095
  %57 = zext nneg i32 %56 to i64
  %58 = getelementptr inbounds nuw [4096 x i32], ptr %51, i64 0, i64 %57
  br label %59

59:                                               ; preds = %59, %.lr.ph.us.us.i
  %indvars.iv75.i = phi i64 [ %indvars.iv.next76.i, %59 ], [ 0, %.lr.ph.us.us.i ]
  %60 = trunc i64 %indvars.iv75.i to i32
  %61 = sub i32 %43, %60
  %62 = tail call i32 @llvm.smin.i32(i32 %61, i32 4096)
  %63 = load i32, ptr %58, align 4, !tbaa !64
  %64 = load ptr, ptr %16, align 8, !tbaa !36
  %65 = getelementptr inbounds nuw i8, ptr %.066.us.us.i, i64 %indvars.iv75.i
  %66 = getelementptr inbounds nuw i8, ptr %.05364.us.us.i, i64 %indvars.iv75.i
  tail call void %64(ptr noundef %65, ptr noundef %66, ptr noundef nonnull %46, i32 noundef %62, i32 noundef %63) #10
  %indvars.iv.next76.i = add nuw nsw i64 %indvars.iv75.i, 4096
  %67 = trunc nuw i64 %indvars.iv.next76.i to i32
  %68 = icmp sgt i32 %43, %67
  br i1 %68, label %59, label %._crit_edge.split.us.us.us.i, !llvm.loop !74

._crit_edge.split.us.us.us.i:                     ; preds = %59
  %69 = getelementptr inbounds i8, ptr %.066.us.us.i, i64 %53
  %70 = getelementptr inbounds i8, ptr %.05364.us.us.i, i64 %54
  %71 = add nsw i32 %.05563.us.us.i, 1
  %exitcond78.not.i = icmp eq i32 %71, %23
  br i1 %exitcond78.not.i, label %noise.exit, label %.lr.ph.us.us.i, !llvm.loop !75

.lr.ph.us.i:                                      ; preds = %.lr.ph68.split.us.i, %._crit_edge.split.us70.i
  %.066.us.i = phi ptr [ %91, %._crit_edge.split.us70.i ], [ %32, %.lr.ph68.split.us.i ]
  %.05364.us.i = phi ptr [ %92, %._crit_edge.split.us70.i ], [ %41, %.lr.ph68.split.us.i ]
  %.05563.us.i = phi i32 [ %93, %._crit_edge.split.us70.i ], [ %21, %.lr.ph68.split.us.i ]
  %72 = and i32 %.05563.us.i, 4095
  %73 = zext nneg i32 %72 to i64
  %74 = getelementptr inbounds nuw [4096 x i32], ptr %51, i64 0, i64 %73
  %75 = getelementptr inbounds nuw [4096 x [3 x ptr]], ptr %52, i64 0, i64 %73
  br label %76

76:                                               ; preds = %76, %.lr.ph.us.i
  %indvars.iv.i = phi i64 [ 0, %.lr.ph.us.i ], [ %indvars.iv.next.i, %76 ]
  %77 = trunc i64 %indvars.iv.i to i32
  %78 = sub i32 %43, %77
  %79 = tail call i32 @llvm.smin.i32(i32 %78, i32 4096)
  %80 = load i32, ptr %74, align 4, !tbaa !64
  %81 = load ptr, ptr %15, align 8, !tbaa !37
  %82 = getelementptr inbounds nuw i8, ptr %.066.us.i, i64 %indvars.iv.i
  %83 = getelementptr inbounds nuw i8, ptr %.05364.us.i, i64 %indvars.iv.i
  tail call void %81(ptr noundef %82, ptr noundef %83, i32 noundef %79, ptr noundef nonnull %75) #10
  %84 = sext i32 %80 to i64
  %85 = getelementptr inbounds i8, ptr %46, i64 %84
  %86 = and i32 %80, 3
  %87 = zext nneg i32 %86 to i64
  %88 = getelementptr inbounds nuw [4096 x [3 x ptr]], ptr %52, i64 0, i64 %73, i64 %87
  store ptr %85, ptr %88, align 8, !tbaa !9
  %indvars.iv.next.i = add nuw nsw i64 %indvars.iv.i, 4096
  %89 = trunc nuw i64 %indvars.iv.next.i to i32
  %90 = icmp sgt i32 %43, %89
  br i1 %90, label %76, label %._crit_edge.split.us70.i, !llvm.loop !74

._crit_edge.split.us70.i:                         ; preds = %76
  %91 = getelementptr inbounds i8, ptr %.066.us.i, i64 %53
  %92 = getelementptr inbounds i8, ptr %.05364.us.i, i64 %54
  %93 = add nsw i32 %.05563.us.i, 1
  %exitcond.not.i = icmp eq i32 %93, %23
  br i1 %exitcond.not.i, label %noise.exit, label %.lr.ph.us.i, !llvm.loop !75

94:                                               ; preds = %17
  %.not60.i = icmp eq ptr %32, %41
  br i1 %.not60.i, label %noise.exit, label %95

95:                                               ; preds = %94
  %96 = sub nsw i32 %23, %21
  tail call void @av_image_copy_plane(ptr noundef %32, i32 noundef %29, ptr noundef %41, i32 noundef %38, i32 noundef %43, i32 noundef %96) #10
  br label %noise.exit

noise.exit:                                       ; preds = %._crit_edge.split.us70.i, %._crit_edge.split.us.us.us.i, %.preheader.i, %.lr.ph68.i, %94, %95
  %indvars.iv.next = add nuw nsw i64 %indvars.iv, 1
  %97 = load i32, ptr %7, align 8, !tbaa !71
  %98 = sext i32 %97 to i64
  %99 = icmp slt i64 %indvars.iv.next, %98
  br i1 %99, label %17, label %._crit_edge, !llvm.loop !76

._crit_edge:                                      ; preds = %noise.exit, %4
  ret i32 0
}